; Function Attrs: nounwind uwtable
define range(i32 -3, 1) i32 @IDASpilsSetIncrementFactor(ptr noundef %0, double noundef %1) local_unnamed_addr #0 {
  %3 = icmp eq ptr %0, null
  br i1 %3, label %4, label %5

4:                                                ; preds = %2
  tail call void (ptr, i32, ptr, ptr, ptr, ...) @IDAProcessError(ptr noundef null, i32 noundef -1, ptr noundef nonnull @.str, ptr noundef nonnull @.str.11, ptr noundef nonnull @.str.2) #5
  br label %15

5:                                                ; preds = %2
  %6 = getelementptr inbounds nuw i8, ptr %0, i64 1632
  %7 = load ptr, ptr %6, align 8, !tbaa !3
  %8 = icmp eq ptr %7, null
  br i1 %8, label %9, label %10

9:                                                ; preds = %5
  tail call void (ptr, i32, ptr, ptr, ptr, ...) @IDAProcessError(ptr noundef nonnull %0, i32 noundef -2, ptr noundef nonnull @.str, ptr noundef nonnull @.str.11, ptr noundef nonnull @.str.3) #5
  br label %15

10:                                               ; preds = %5
  %11 = fcmp ugt double %1, 0.000000e+00
  br i1 %11, label %13, label %12

12:                                               ; preds = %10
  tail call void (ptr, i32, ptr, ptr, ptr, ...) @IDAProcessError(ptr noundef nonnull %0, i32 noundef -3, ptr noundef nonnull @.str, ptr noundef nonnull @.str.11, ptr noundef nonnull @.str.12) #5
  br label %15

13:                                               ; preds = %10
  %14 = getelementptr inbounds nuw i8, ptr %7, i64 32
  store double %1, ptr %14, align 8, !tbaa !23
  br label %15

15:                                               ; preds = %13, %12, %9, %4
  %.0 = phi i32 [ -1, %4 ], [ -2, %9 ], [ -3, %12 ], [ 0, %13 ]
  ret i32 %.0
}